target datalayout = "e-m:e-p270:32:32-p271:32:32-p272:64:64-i64:64-i128:128-f80:128-n8:16:32:64-S128"
target triple = "x86_64-pc-linux-gnu"

%struct.solver_t_ = type { i32, ptr, ptr, ptr, ptr, ptr, ptr, i64, i32, ptr, ptr, ptr, ptr, ptr, ptr, ptr, ptr, i32, i32, i64, ptr, ptr, ptr, ptr, ptr, ptr, ptr, i64, i64, i64, float, i32, ptr, i32, i32, i32, i32, i32, ptr, i64, ptr, i32, ptr, %struct.satoko_stats, %struct.satoko_opts }
%struct.satoko_stats = type { i32, i32, i64, i64, i64, i64, i64, i64, i64, i64 }
%struct.satoko_opts = type { i64, i64, double, double, i32, i32, i32, i32, i32, i32, i32, float, double, float, i32, i64, i32, i32, float, i8, i8 }
%struct.vec_uint_t_ = type { i32, i32, ptr }
%struct.vec_char_t_ = type { i32, i32, ptr }

@stdout = external global ptr, align 8
@.str = private unnamed_addr constant [52 x i8] c"[Satoko] Checking for trail(%u) inconsistencies...\0A\00", align 1
@.str.1 = private unnamed_addr constant [36 x i8] c"[Satoko] Inconsistent trail: %u %u\0A\00", align 1
@.str.2 = private unnamed_addr constant [48 x i8] c"[Satoko] Inconsistent trail assignment: %u, %u\0A\00", align 1
@.str.3 = private unnamed_addr constant [20 x i8] c"[Satoko] Trail OK.\0A\00", align 1
@.str.11 = private unnamed_addr constant [29 x i8] c"Vector has %u(%u) entries: {\00", align 1
@.str.12 = private unnamed_addr constant [4 x i8] c" %u\00", align 1
@.str.13 = private unnamed_addr constant [4 x i8] c" }\0A\00", align 1

; Function Attrs: inlinehint nounwind uwtable
define internal void @vec_uint_resize(ptr noundef %0, i32 noundef %1) #2 {
  %3 = alloca ptr, align 8
  %4 = alloca i32, align 4
  store ptr %0, ptr %3, align 8, !tbaa !8
  store i32 %1, ptr %4, align 4, !tbaa !10
  %5 = load i32, ptr %4, align 4, !tbaa !10
  %6 = load ptr, ptr %3, align 8, !tbaa !8
  %7 = getelementptr inbounds nuw %struct.vec_uint_t_, ptr %6, i32 0, i32 1
  store i32 %5, ptr %7, align 4, !tbaa !35
  %8 = load ptr, ptr %3, align 8, !tbaa !8
  %9 = getelementptr inbounds nuw %struct.vec_uint_t_, ptr %8, i32 0, i32 0
  %10 = load i32, ptr %9, align 8, !tbaa !41
  %11 = load i32, ptr %4, align 4, !tbaa !10
  %12 = icmp uge i32 %10, %11
  br i1 %12, label %13, label %14

13:                                               ; preds = %2
  br label %27

14:                                               ; preds = %2
  %15 = load ptr, ptr %3, align 8, !tbaa !8
  %16 = getelementptr inbounds nuw %struct.vec_uint_t_, ptr %15, i32 0, i32 2
  %17 = load ptr, ptr %16, align 8, !tbaa !40
  %18 = load i32, ptr %4, align 4, !tbaa !10
  %19 = zext i32 %18 to i64
  %20 = mul i64 %19, 4
  %21 = call ptr @realloc(ptr noundef %17, i64 noundef %20) #11
  %22 = load ptr, ptr %3, align 8, !tbaa !8
  %23 = getelementptr inbounds nuw %struct.vec_uint_t_, ptr %22, i32 0, i32 2
  store ptr %21, ptr %23, align 8, !tbaa !40
  %24 = load i32, ptr %4, align 4, !tbaa !10
  %25 = load ptr, ptr %3, align 8, !tbaa !8
  %26 = getelementptr inbounds nuw %struct.vec_uint_t_, ptr %25, i32 0, i32 0
  store i32 %24, ptr %26, align 8, !tbaa !41
  br label %27

27:                                               ; preds = %14, %13
  ret void
}

; Function Attrs: inlinehint nounwind uwtable
define internal void @vec_uint_free(ptr noundef %0) #2 {
  %2 = alloca ptr, align 8
  store ptr %0, ptr %2, align 8, !tbaa !8
  %3 = load ptr, ptr %2, align 8, !tbaa !8
  %4 = getelementptr inbounds nuw %struct.vec_uint_t_, ptr %3, i32 0, i32 2
  %5 = load ptr, ptr %4, align 8, !tbaa !40
  %6 = icmp ne ptr %5, null
  br i1 %6, label %7, label %15

7:                                                ; preds = %1
  br label %8

8:                                                ; preds = %7
  %9 = load ptr, ptr %2, align 8, !tbaa !8
  %10 = getelementptr inbounds nuw %struct.vec_uint_t_, ptr %9, i32 0, i32 2
  %11 = load ptr, ptr %10, align 8, !tbaa !40
  call void @free(ptr noundef %11) #9
  %12 = load ptr, ptr %2, align 8, !tbaa !8
  %13 = getelementptr inbounds nuw %struct.vec_uint_t_, ptr %12, i32 0, i32 2
  store ptr null, ptr %13, align 8, !tbaa !40
  br label %14

14:                                               ; preds = %8
  br label %15

15:                                               ; preds = %14, %1
  br label %16

16:                                               ; preds = %15
  %17 = load ptr, ptr %2, align 8, !tbaa !8
  call void @free(ptr noundef %17) #9
  store ptr null, ptr %2, align 8, !tbaa !8
  br label %18

18:                                               ; preds = %16
  ret void
}

; Function Attrs: inlinehint nounwind uwtable
define internal void @vec_uint_print(ptr noundef %0) #2 {
  %2 = alloca ptr, align 8
  %3 = alloca i32, align 4
  store ptr %0, ptr %2, align 8, !tbaa !8
  call void @llvm.lifetime.start.p0(i64 4, ptr %3) #9
  %4 = load ptr, ptr @stdout, align 8, !tbaa !132
  %5 = load ptr, ptr %2, align 8, !tbaa !8
  %6 = getelementptr inbounds nuw %struct.vec_uint_t_, ptr %5, i32 0, i32 1
  %7 = load i32, ptr %6, align 4, !tbaa !35
  %8 = load ptr, ptr %2, align 8, !tbaa !8
  %9 = getelementptr inbounds nuw %struct.vec_uint_t_, ptr %8, i32 0, i32 0
  %10 = load i32, ptr %9, align 8, !tbaa !41
  %11 = call i32 (ptr, ptr, ...) @fprintf(ptr noundef %4, ptr noundef @.str.11, i32 noundef %7, i32 noundef %10) #9
  store i32 0, ptr %3, align 4, !tbaa !10
  br label %12

12:                                               ; preds = %28, %1
  %13 = load i32, ptr %3, align 4, !tbaa !10
  %14 = load ptr, ptr %2, align 8, !tbaa !8
  %15 = getelementptr inbounds nuw %struct.vec_uint_t_, ptr %14, i32 0, i32 1
  %16 = load i32, ptr %15, align 4, !tbaa !35
  %17 = icmp ult i32 %13, %16
  br i1 %17, label %18, label %31

18:                                               ; preds = %12
  %19 = load ptr, ptr @stdout, align 8, !tbaa !132
  %20 = load ptr, ptr %2, align 8, !tbaa !8
  %21 = getelementptr inbounds nuw %struct.vec_uint_t_, ptr %20, i32 0, i32 2
  %22 = load ptr, ptr %21, align 8, !tbaa !40
  %23 = load i32, ptr %3, align 4, !tbaa !10
  %24 = zext i32 %23 to i64
  %25 = getelementptr inbounds nuw i32, ptr %22, i64 %24
  %26 = load i32, ptr %25, align 4, !tbaa !10
  %27 = call i32 (ptr, ptr, ...) @fprintf(ptr noundef %19, ptr noundef @.str.12, i32 noundef %26) #9
  br label %28

28:                                               ; preds = %18
  %29 = load i32, ptr %3, align 4, !tbaa !10
  %30 = add i32 %29, 1
  store i32 %30, ptr %3, align 4, !tbaa !10
  br label %12, !llvm.loop !142

31:                                               ; preds = %12
  %32 = load ptr, ptr @stdout, align 8, !tbaa !132
  %33 = call i32 (ptr, ptr, ...) @fprintf(ptr noundef %32, ptr noundef @.str.13) #9
  call void @llvm.lifetime.end.p0(i64 4, ptr %3) #9
  ret void
}

; Function Attrs: inlinehint nounwind uwtable
define internal signext i8 @vec_char_at(ptr noundef %0, i32 noundef %1) #2 {
  %3 = alloca ptr, align 8
  %4 = alloca i32, align 4
  store ptr %0, ptr %3, align 8, !tbaa !55
  store i32 %1, ptr %4, align 4, !tbaa !10
  %5 = load ptr, ptr %3, align 8, !tbaa !55
  %6 = getelementptr inbounds nuw %struct.vec_char_t_, ptr %5, i32 0, i32 2
  %7 = load ptr, ptr %6, align 8, !tbaa !56
  %8 = load i32, ptr %4, align 4, !tbaa !10
  %9 = zext i32 %8 to i64
  %10 = getelementptr inbounds nuw i8, ptr %7, i64 %9
  %11 = load i8, ptr %10, align 1, !tbaa !31
  ret i8 %11
}

; Function Attrs: inlinehint nounwind uwtable
define internal signext i8 @lit_polarity(i32 noundef %0) #2 {
  %2 = alloca i32, align 4
  store i32 %0, ptr %2, align 4, !tbaa !10
  %3 = load i32, ptr %2, align 4, !tbaa !10
  %4 = and i32 %3, 1
  %5 = trunc i32 %4 to i8
  ret i8 %5
}

; Function Attrs: inlinehint nounwind uwtable
define internal signext i8 @var_value(ptr noundef %0, i32 noundef %1) #2 {
  %3 = alloca ptr, align 8
  %4 = alloca i32, align 4
  store ptr %0, ptr %3, align 8, !tbaa !3
  store i32 %1, ptr %4, align 4, !tbaa !10
  %5 = load ptr, ptr %3, align 8, !tbaa !3
  %6 = getelementptr inbounds nuw %struct.solver_t_, ptr %5, i32 0, i32 13
  %7 = load ptr, ptr %6, align 8, !tbaa !50
  %8 = load i32, ptr %4, align 4, !tbaa !10
  %9 = call signext i8 @vec_char_at(ptr noundef %7, i32 noundef %8)
  ret i8 %9
}

; Function Attrs: inlinehint nounwind uwtable
define internal i32 @lit2var(i32 noundef %0) #2 {
  %2 = alloca i32, align 4
  store i32 %0, ptr %2, align 4, !tbaa !10
  %3 = load i32, ptr %2, align 4, !tbaa !10
  %4 = lshr i32 %3, 1
  ret i32 %4
}

; Function Attrs: inlinehint nounwind uwtable
define internal i32 @lit_compl(i32 noundef %0) #2 {
  %2 = alloca i32, align 4
  store i32 %0, ptr %2, align 4, !tbaa !10
  %3 = load i32, ptr %2, align 4, !tbaa !10
  %4 = xor i32 %3, 1
  ret i32 %4
}

; Function Attrs: inlinehint nounwind uwtable
define internal ptr @vec_uint_data(ptr noundef %0) #2 {
  %2 = alloca ptr, align 8
  store ptr %0, ptr %2, align 8, !tbaa !8
  %3 = load ptr, ptr %2, align 8, !tbaa !8
  %4 = getelementptr inbounds nuw %struct.vec_uint_t_, ptr %3, i32 0, i32 2
  %5 = load ptr, ptr %4, align 8, !tbaa !40
  ret ptr %5
}

; Function Attrs: inlinehint nounwind uwtable
define internal void @vec_uint_sort(ptr noundef %0, i32 noundef %1) #2 {
  %3 = alloca ptr, align 8
  %4 = alloca i32, align 4
  store ptr %0, ptr %3, align 8, !tbaa !8
  store i32 %1, ptr %4, align 4, !tbaa !10
  %5 = load i32, ptr %4, align 4, !tbaa !10
  %6 = icmp ne i32 %5, 0
  br i1 %6, label %7, label %15

7:                                                ; preds = %2
  %8 = load ptr, ptr %3, align 8, !tbaa !8
  %9 = getelementptr inbounds nuw %struct.vec_uint_t_, ptr %8, i32 0, i32 2
  %10 = load ptr, ptr %9, align 8, !tbaa !40
  %11 = load ptr, ptr %3, align 8, !tbaa !8
  %12 = getelementptr inbounds nuw %struct.vec_uint_t_, ptr %11, i32 0, i32 1
  %13 = load i32, ptr %12, align 4, !tbaa !35
  %14 = zext i32 %13 to i64
  call void @qsort(ptr noundef %10, i64 noundef %14, i64 noundef 4, ptr noundef @vec_uint_asc_compare)
  br label %23

15:                                               ; preds = %2
  %16 = load ptr, ptr %3, align 8, !tbaa !8
  %17 = getelementptr inbounds nuw %struct.vec_uint_t_, ptr %16, i32 0, i32 2
  %18 = load ptr, ptr %17, align 8, !tbaa !40
  %19 = load ptr, ptr %3, align 8, !tbaa !8
  %20 = getelementptr inbounds nuw %struct.vec_uint_t_, ptr %19, i32 0, i32 1
  %21 = load i32, ptr %20, align 4, !tbaa !35
  %22 = zext i32 %21 to i64
  call void @qsort(ptr noundef %18, i64 noundef %22, i64 noundef 4, ptr noundef @vec_uint_desc_compare)
  br label %23

23:                                               ; preds = %15, %7
  ret void
}

; Function Attrs: inlinehint nounwind uwtable
define internal void @vec_uint_duplicate(ptr noundef %0, ptr noundef %1) #2 {
  %3 = alloca ptr, align 8
  %4 = alloca ptr, align 8
  store ptr %0, ptr %3, align 8, !tbaa !8
  store ptr %1, ptr %4, align 8, !tbaa !8
  %5 = load ptr, ptr %3, align 8, !tbaa !8
  %6 = load ptr, ptr %4, align 8, !tbaa !8
  %7 = getelementptr inbounds nuw %struct.vec_uint_t_, ptr %6, i32 0, i32 0
  %8 = load i32, ptr %7, align 8, !tbaa !41
  call void @vec_uint_resize(ptr noundef %5, i32 noundef %8)
  %9 = load ptr, ptr %3, align 8, !tbaa !8
  %10 = getelementptr inbounds nuw %struct.vec_uint_t_, ptr %9, i32 0, i32 2
  %11 = load ptr, ptr %10, align 8, !tbaa !40
  %12 = load ptr, ptr %4, align 8, !tbaa !8
  %13 = getelementptr inbounds nuw %struct.vec_uint_t_, ptr %12, i32 0, i32 2
  %14 = load ptr, ptr %13, align 8, !tbaa !40
  %15 = load ptr, ptr %4, align 8, !tbaa !8
  %16 = getelementptr inbounds nuw %struct.vec_uint_t_, ptr %15, i32 0, i32 0
  %17 = load i32, ptr %16, align 8, !tbaa !41
  %18 = zext i32 %17 to i64
  %19 = mul i64 4, %18
  call void @llvm.memcpy.p0.p0.i64(ptr align 4 %11, ptr align 4 %14, i64 %19, i1 false)
  %20 = load ptr, ptr %4, align 8, !tbaa !8
  %21 = getelementptr inbounds nuw %struct.vec_uint_t_, ptr %20, i32 0, i32 1
  %22 = load i32, ptr %21, align 4, !tbaa !35
  %23 = load ptr, ptr %3, align 8, !tbaa !8
  %24 = getelementptr inbounds nuw %struct.vec_uint_t_, ptr %23, i32 0, i32 1
  store i32 %22, ptr %24, align 4, !tbaa !35
  ret void
}

; Function Attrs: inlinehint nounwind uwtable
define internal i32 @vec_uint_size(ptr noundef %0) #2 {
  %2 = alloca ptr, align 8
  store ptr %0, ptr %2, align 8, !tbaa !8
  %3 = load ptr, ptr %2, align 8, !tbaa !8
  %4 = getelementptr inbounds nuw %struct.vec_uint_t_, ptr %3, i32 0, i32 1
  %5 = load i32, ptr %4, align 4, !tbaa !35
  ret i32 %5
}

; Function Attrs: inlinehint nounwind uwtable
define internal ptr @vec_uint_alloc(i32 noundef %0) #2 {
  %2 = alloca i32, align 4
  %3 = alloca ptr, align 8
  store i32 %0, ptr %2, align 4, !tbaa !10
  call void @llvm.lifetime.start.p0(i64 8, ptr %3) #9
  %4 = call noalias ptr @malloc(i64 noundef 16) #10
  store ptr %4, ptr %3, align 8, !tbaa !8
  %5 = load i32, ptr %2, align 4, !tbaa !10
  %6 = icmp ugt i32 %5, 0
  br i1 %6, label %7, label %11

7:                                                ; preds = %1
  %8 = load i32, ptr %2, align 4, !tbaa !10
  %9 = icmp ult i32 %8, 16
  br i1 %9, label %10, label %11

10:                                               ; preds = %7
  store i32 16, ptr %2, align 4, !tbaa !10
  br label %11

11:                                               ; preds = %10, %7, %1
  %12 = load ptr, ptr %3, align 8, !tbaa !8
  %13 = getelementptr inbounds nuw %struct.vec_uint_t_, ptr %12, i32 0, i32 1
  store i32 0, ptr %13, align 4, !tbaa !35
  %14 = load i32, ptr %2, align 4, !tbaa !10
  %15 = load ptr, ptr %3, align 8, !tbaa !8
  %16 = getelementptr inbounds nuw %struct.vec_uint_t_, ptr %15, i32 0, i32 0
  store i32 %14, ptr %16, align 8, !tbaa !41
  %17 = load ptr, ptr %3, align 8, !tbaa !8
  %18 = getelementptr inbounds nuw %struct.vec_uint_t_, ptr %17, i32 0, i32 0
  %19 = load i32, ptr %18, align 8, !tbaa !41
  %20 = icmp ne i32 %19, 0
  br i1 %20, label %21, label %28

21:                                               ; preds = %11
  %22 = load ptr, ptr %3, align 8, !tbaa !8
  %23 = getelementptr inbounds nuw %struct.vec_uint_t_, ptr %22, i32 0, i32 0
  %24 = load i32, ptr %23, align 8, !tbaa !41
  %25 = zext i32 %24 to i64
  %26 = mul i64 %25, 4
  %27 = call noalias ptr @malloc(i64 noundef %26) #10
  br label %29

28:                                               ; preds = %11
  br label %29

29:                                               ; preds = %28, %21
  %30 = phi ptr [ %27, %21 ], [ null, %28 ]
  %31 = load ptr, ptr %3, align 8, !tbaa !8
  %32 = getelementptr inbounds nuw %struct.vec_uint_t_, ptr %31, i32 0, i32 2
  store ptr %30, ptr %32, align 8, !tbaa !40
  %33 = load ptr, ptr %3, align 8, !tbaa !8
  call void @llvm.lifetime.end.p0(i64 8, ptr %3) #9
  ret ptr %33
}

; Function Attrs: nounwind uwtable
define void @solver_debug_check_trail(ptr noundef %0) #0 {
  %2 = alloca ptr, align 8
  %3 = alloca i32, align 4
  %4 = alloca ptr, align 8
  %5 = alloca ptr, align 8
  %6 = alloca i32, align 4
  store ptr %0, ptr %2, align 8, !tbaa !3
  call void @llvm.lifetime.start.p0(i64 4, ptr %3) #9
  call void @llvm.lifetime.start.p0(i64 8, ptr %4) #9
  call void @llvm.lifetime.start.p0(i64 8, ptr %5) #9
  %7 = call ptr @vec_uint_alloc(i32 noundef 0)
  store ptr %7, ptr %5, align 8, !tbaa !8
  %8 = load ptr, ptr @stdout, align 8, !tbaa !132
  %9 = load ptr, ptr %2, align 8, !tbaa !3
  %10 = getelementptr inbounds nuw %struct.solver_t_, ptr %9, i32 0, i32 15
  %11 = load ptr, ptr %10, align 8, !tbaa !48
  %12 = call i32 @vec_uint_size(ptr noundef %11)
  %13 = call i32 (ptr, ptr, ...) @fprintf(ptr noundef %8, ptr noundef @.str, i32 noundef %12) #9
  %14 = load ptr, ptr %5, align 8, !tbaa !8
  %15 = load ptr, ptr %2, align 8, !tbaa !3
  %16 = getelementptr inbounds nuw %struct.solver_t_, ptr %15, i32 0, i32 15
  %17 = load ptr, ptr %16, align 8, !tbaa !48
  call void @vec_uint_duplicate(ptr noundef %14, ptr noundef %17)
  %18 = load ptr, ptr %5, align 8, !tbaa !8
  call void @vec_uint_sort(ptr noundef %18, i32 noundef 1)
  %19 = load ptr, ptr %5, align 8, !tbaa !8
  %20 = call ptr @vec_uint_data(ptr noundef %19)
  store ptr %20, ptr %4, align 8, !tbaa !42
  store i32 1, ptr %3, align 4, !tbaa !10
  br label %21

21:                                               ; preds = %55, %1
  %22 = load i32, ptr %3, align 4, !tbaa !10
  %23 = load ptr, ptr %5, align 8, !tbaa !8
  %24 = call i32 @vec_uint_size(ptr noundef %23)
  %25 = icmp ult i32 %22, %24
  br i1 %25, label %26, label %58

26:                                               ; preds = %21
  %27 = load ptr, ptr %4, align 8, !tbaa !42
  %28 = load i32, ptr %3, align 4, !tbaa !10
  %29 = sub i32 %28, 1
  %30 = zext i32 %29 to i64
  %31 = getelementptr inbounds nuw i32, ptr %27, i64 %30
  %32 = load i32, ptr %31, align 4, !tbaa !10
  %33 = load ptr, ptr %4, align 8, !tbaa !42
  %34 = load i32, ptr %3, align 4, !tbaa !10
  %35 = zext i32 %34 to i64
  %36 = getelementptr inbounds nuw i32, ptr %33, i64 %35
  %37 = load i32, ptr %36, align 4, !tbaa !10
  %38 = call i32 @lit_compl(i32 noundef %37)
  %39 = icmp eq i32 %32, %38
  br i1 %39, label %40, label %54

40:                                               ; preds = %26
  %41 = load ptr, ptr @stdout, align 8, !tbaa !132
  %42 = load ptr, ptr %4, align 8, !tbaa !42
  %43 = load i32, ptr %3, align 4, !tbaa !10
  %44 = sub i32 %43, 1
  %45 = zext i32 %44 to i64
  %46 = getelementptr inbounds nuw i32, ptr %42, i64 %45
  %47 = load i32, ptr %46, align 4, !tbaa !10
  %48 = load ptr, ptr %4, align 8, !tbaa !42
  %49 = load i32, ptr %3, align 4, !tbaa !10
  %50 = zext i32 %49 to i64
  %51 = getelementptr inbounds nuw i32, ptr %48, i64 %50
  %52 = load i32, ptr %51, align 4, !tbaa !10
  %53 = call i32 (ptr, ptr, ...) @fprintf(ptr noundef %41, ptr noundef @.str.1, i32 noundef %47, i32 noundef %52) #9
  store i32 1, ptr %6, align 4
  br label %110

54:                                               ; preds = %26
  br label %55

55:                                               ; preds = %54
  %56 = load i32, ptr %3, align 4, !tbaa !10
  %57 = add i32 %56, 1
  store i32 %57, ptr %3, align 4, !tbaa !10
  br label %21, !llvm.loop !140

58:                                               ; preds = %21
  store i32 0, ptr %3, align 4, !tbaa !10
  br label %59

59:                                               ; preds = %102, %58
  %60 = load i32, ptr %3, align 4, !tbaa !10
  %61 = load ptr, ptr %5, align 8, !tbaa !8
  %62 = call i32 @vec_uint_size(ptr noundef %61)
  %63 = icmp ult i32 %60, %62
  br i1 %63, label %64, label %105

64:                                               ; preds = %59
  %65 = load ptr, ptr %2, align 8, !tbaa !3
  %66 = load ptr, ptr %4, align 8, !tbaa !42
  %67 = load i32, ptr %3, align 4, !tbaa !10
  %68 = zext i32 %67 to i64
  %69 = getelementptr inbounds nuw i32, ptr %66, i64 %68
  %70 = load i32, ptr %69, align 4, !tbaa !10
  %71 = call i32 @lit2var(i32 noundef %70)
  %72 = call signext i8 @var_value(ptr noundef %65, i32 noundef %71)
  %73 = sext i8 %72 to i32
  %74 = load ptr, ptr %4, align 8, !tbaa !42
  %75 = load i32, ptr %3, align 4, !tbaa !10
  %76 = zext i32 %75 to i64
  %77 = getelementptr inbounds nuw i32, ptr %74, i64 %76
  %78 = load i32, ptr %77, align 4, !tbaa !10
  %79 = call signext i8 @lit_polarity(i32 noundef %78)
  %80 = sext i8 %79 to i32
  %81 = icmp ne i32 %73, %80
  br i1 %81, label %82, label %101

82:                                               ; preds = %64
  %83 = load ptr, ptr @stdout, align 8, !tbaa !132
  %84 = load ptr, ptr %2, align 8, !tbaa !3
  %85 = getelementptr inbounds nuw %struct.solver_t_, ptr %84, i32 0, i32 13
  %86 = load ptr, ptr %85, align 8, !tbaa !50
  %87 = load ptr, ptr %4, align 8, !tbaa !42
  %88 = load i32, ptr %3, align 4, !tbaa !10
  %89 = zext i32 %88 to i64
  %90 = getelementptr inbounds nuw i32, ptr %87, i64 %89
  %91 = load i32, ptr %90, align 4, !tbaa !10
  %92 = call i32 @lit2var(i32 noundef %91)
  %93 = call signext i8 @vec_char_at(ptr noundef %86, i32 noundef %92)
  %94 = sext i8 %93 to i32
  %95 = load ptr, ptr %4, align 8, !tbaa !42
  %96 = load i32, ptr %3, align 4, !tbaa !10
  %97 = zext i32 %96 to i64
  %98 = getelementptr inbounds nuw i32, ptr %95, i64 %97
  %99 = load i32, ptr %98, align 4, !tbaa !10
  %100 = call i32 (ptr, ptr, ...) @fprintf(ptr noundef %83, ptr noundef @.str.2, i32 noundef %94, i32 noundef %99) #9
  store i32 1, ptr %6, align 4
  br label %110

101:                                              ; preds = %64
  br label %102

102:                                              ; preds = %101
  %103 = load i32, ptr %3, align 4, !tbaa !10
  %104 = add i32 %103, 1
  store i32 %104, ptr %3, align 4, !tbaa !10
  br label %59, !llvm.loop !141

105:                                              ; preds = %59
  %106 = load ptr, ptr @stdout, align 8, !tbaa !132
  %107 = call i32 (ptr, ptr, ...) @fprintf(ptr noundef %106, ptr noundef @.str.3) #9
  %108 = load ptr, ptr %5, align 8, !tbaa !8
  call void @vec_uint_print(ptr noundef %108)
  %109 = load ptr, ptr %5, align 8, !tbaa !8
  call void @vec_uint_free(ptr noundef %109)
  store i32 0, ptr %6, align 4
  br label %110

110:                                              ; preds = %105, %82, %40
  call void @llvm.lifetime.end.p0(i64 8, ptr %5) #9
  call void @llvm.lifetime.end.p0(i64 8, ptr %4) #9
  call void @llvm.lifetime.end.p0(i64 4, ptr %3) #9
  %111 = load i32, ptr %6, align 4
  switch i32 %111, label %113 [
    i32 0, label %112
    i32 1, label %112
  ]

112:                                              ; preds = %110, %110
  ret void

113:                                              ; preds = %110
  unreachable
}