; Function Attrs: nounwind uwtable
define void @solver_debug_check_trail(ptr noundef readonly captures(none) %0) local_unnamed_addr #0 {
  %2 = load ptr, ptr @stdout, align 8, !tbaa !89
  %3 = getelementptr inbounds nuw i8, ptr %0, i64 120
  %4 = load ptr, ptr %3, align 8, !tbaa !47
  %5 = getelementptr i8, ptr %4, i64 4
  %.val31 = load i32, ptr %5, align 4, !tbaa !3
  %6 = tail call i32 (ptr, ptr, ...) @fprintf(ptr noundef %2, ptr noundef nonnull @.str, i32 noundef %.val31) #19
  %7 = load ptr, ptr %3, align 8, !tbaa !47
  %8 = load i32, ptr %7, align 8, !tbaa !34
  %.not.i.i.not = icmp eq i32 %8, 0
  br i1 %.not.i.i.not, label %vec_uint_duplicate.exit, label %9

9:                                                ; preds = %1
  %10 = zext i32 %8 to i64
  %11 = shl nuw nsw i64 %10, 2
  %malloc = tail call ptr @malloc(i64 %11)
  br label %vec_uint_duplicate.exit

vec_uint_duplicate.exit:                          ; preds = %1, %9
  %.pre-phi62 = phi i64 [ %11, %9 ], [ 0, %1 ]
  %.val36 = phi ptr [ %malloc, %9 ], [ null, %1 ]
  %12 = getelementptr inbounds nuw i8, ptr %7, i64 8
  %13 = load ptr, ptr %12, align 8, !tbaa !32
  tail call void @llvm.memcpy.p0.p0.i64(ptr align 4 %.val36, ptr align 4 %13, i64 %.pre-phi62, i1 false)
  %14 = getelementptr inbounds nuw i8, ptr %7, i64 4
  %15 = load i32, ptr %14, align 4, !tbaa !3
  %16 = zext i32 %15 to i64
  tail call void @qsort(ptr noundef %.val36, i64 noundef %16, i64 noundef 4, ptr noundef nonnull @vec_uint_asc_compare) #19
  %17 = icmp ugt i32 %15, 1
  br i1 %17, label %.lr.ph.preheader, label %.preheader

.lr.ph.preheader:                                 ; preds = %vec_uint_duplicate.exit
  %.pre = load i32, ptr %.val36, align 4, !tbaa !35
  br label %.lr.ph

18:                                               ; preds = %.lr.ph
  %indvars.iv.next = add nuw nsw i64 %indvars.iv, 1
  %exitcond.not = icmp eq i64 %indvars.iv.next, %16
  br i1 %exitcond.not, label %.preheader, label %.lr.ph, !llvm.loop !179

.preheader:                                       ; preds = %18, %vec_uint_duplicate.exit
  %.not45 = icmp eq i32 %15, 0
  br i1 %.not45, label %vec_uint_print.exit.critedge, label %.lr.ph44

.lr.ph44:                                         ; preds = %.preheader
  %19 = getelementptr i8, ptr %0, i64 104
  %.val34 = load ptr, ptr %19, align 8, !tbaa !48
  %20 = getelementptr i8, ptr %.val34, i64 8
  %.val34.val = load ptr, ptr %20, align 8, !tbaa !49
  br label %30

.lr.ph:                                           ; preds = %.lr.ph.preheader, %18
  %21 = phi i32 [ %.pre, %.lr.ph.preheader ], [ %23, %18 ]
  %indvars.iv = phi i64 [ 1, %.lr.ph.preheader ], [ %indvars.iv.next, %18 ]
  %22 = getelementptr inbounds nuw i32, ptr %.val36, i64 %indvars.iv
  %23 = load i32, ptr %22, align 4, !tbaa !35
  %24 = xor i32 %23, %21
  %25 = icmp eq i32 %24, 1
  br i1 %25, label %26, label %18

26:                                               ; preds = %.lr.ph
  %27 = load ptr, ptr @stdout, align 8, !tbaa !89
  %28 = tail call i32 (ptr, ptr, ...) @fprintf(ptr noundef %27, ptr noundef nonnull @.str.1, i32 noundef %21, i32 noundef %23) #19
  br label %vec_uint_free.exit

29:                                               ; preds = %30
  %indvars.iv.next55 = add nuw nsw i64 %indvars.iv54, 1
  %exitcond58.not = icmp eq i64 %indvars.iv.next55, %16
  br i1 %exitcond58.not, label %._crit_edge, label %30, !llvm.loop !180

30:                                               ; preds = %.lr.ph44, %29
  %indvars.iv54 = phi i64 [ 0, %.lr.ph44 ], [ %indvars.iv.next55, %29 ]
  %31 = getelementptr inbounds nuw i32, ptr %.val36, i64 %indvars.iv54
  %32 = load i32, ptr %31, align 4, !tbaa !35
  %33 = lshr i32 %32, 1
  %34 = zext nneg i32 %33 to i64
  %35 = getelementptr inbounds nuw i8, ptr %.val34.val, i64 %34
  %36 = load i8, ptr %35, align 1, !tbaa !40
  %37 = trunc i32 %32 to i8
  %38 = and i8 %37, 1
  %.not = icmp eq i8 %36, %38
  br i1 %.not, label %29, label %39

39:                                               ; preds = %30
  %40 = load ptr, ptr @stdout, align 8, !tbaa !89
  %41 = sext i8 %36 to i32
  %42 = tail call i32 (ptr, ptr, ...) @fprintf(ptr noundef %40, ptr noundef nonnull @.str.2, i32 noundef %41, i32 noundef %32) #19
  br label %vec_uint_free.exit

._crit_edge:                                      ; preds = %29
  %43 = load ptr, ptr @stdout, align 8, !tbaa !89
  %44 = tail call i64 @fwrite(ptr nonnull @.str.3, i64 19, i64 1, ptr %43)
  %45 = load ptr, ptr @stdout, align 8, !tbaa !89
  %46 = tail call i32 (ptr, ptr, ...) @fprintf(ptr noundef %45, ptr noundef nonnull @.str.11, i32 noundef %15, i32 noundef %8) #19
  br label %.lr.ph.i

.lr.ph.i:                                         ; preds = %._crit_edge, %.lr.ph.i
  %indvars.iv.i = phi i64 [ %indvars.iv.next.i, %.lr.ph.i ], [ 0, %._crit_edge ]
  %47 = load ptr, ptr @stdout, align 8, !tbaa !89
  %48 = getelementptr inbounds nuw i32, ptr %.val36, i64 %indvars.iv.i
  %49 = load i32, ptr %48, align 4, !tbaa !35
  %50 = tail call i32 (ptr, ptr, ...) @fprintf(ptr noundef %47, ptr noundef nonnull @.str.12, i32 noundef %49) #19
  %indvars.iv.next.i = add nuw nsw i64 %indvars.iv.i, 1
  %exitcond59.not = icmp eq i64 %indvars.iv.next.i, %16
  br i1 %exitcond59.not, label %vec_uint_print.exit.thread, label %.lr.ph.i, !llvm.loop !181

vec_uint_print.exit.thread:                       ; preds = %.lr.ph.i
  %51 = load ptr, ptr @stdout, align 8, !tbaa !89
  %52 = tail call i64 @fwrite(ptr nonnull @.str.13, i64 3, i64 1, ptr %51)
  br label %59

vec_uint_print.exit.critedge:                     ; preds = %.preheader
  %53 = load ptr, ptr @stdout, align 8, !tbaa !89
  %54 = tail call i64 @fwrite(ptr nonnull @.str.3, i64 19, i64 1, ptr %53)
  %55 = load ptr, ptr @stdout, align 8, !tbaa !89
  %56 = tail call i32 (ptr, ptr, ...) @fprintf(ptr noundef %55, ptr noundef nonnull @.str.11, i32 noundef %15, i32 noundef %8) #19
  %57 = load ptr, ptr @stdout, align 8, !tbaa !89
  %58 = tail call i64 @fwrite(ptr nonnull @.str.13, i64 3, i64 1, ptr %57)
  %.not.i37 = icmp eq ptr %.val36, null
  br i1 %.not.i37, label %vec_uint_free.exit, label %59

59:                                               ; preds = %vec_uint_print.exit.thread, %vec_uint_print.exit.critedge
  tail call void @free(ptr noundef nonnull %.val36) #19
  br label %vec_uint_free.exit

vec_uint_free.exit:                               ; preds = %59, %vec_uint_print.exit.critedge, %39, %26
  ret void
}